target datalayout = "e-m:e-p270:32:32-p271:32:32-p272:64:64-i64:64-i128:128-f80:128-n8:16:32:64-S128"
target triple = "x86_64-pc-linux-gnu"

@hf_kafka_topic_id = internal global i32 0, align 4
@hf_kafka_topic_name = internal global i32 0, align 4
@.str.558 = private unnamed_addr constant [6 x i8] c"Topic\00", align 1
@ett_kafka_topic = internal global i32 0, align 4
@.str.671 = private unnamed_addr constant [11 x i8] c"Partitions\00", align 1
@.str.672 = private unnamed_addr constant [17 x i8] c" (%u partitions)\00", align 1

; Function Attrs: null_pointer_is_valid sspstrong uwtable
define internal i32 @dissect_kafka_uuid(ptr noundef %0, i32 noundef %1, ptr noundef %2, ptr noundef %3, i32 noundef %4) #0 {
  %6 = alloca ptr, align 8
  %7 = alloca i32, align 4
  %8 = alloca ptr, align 8
  %9 = alloca ptr, align 8
  %10 = alloca i32, align 4
  store ptr %0, ptr %6, align 8
  store i32 %1, ptr %7, align 4
  store ptr %2, ptr %8, align 8
  store ptr %3, ptr %9, align 8
  store i32 %4, ptr %10, align 4
  %11 = load ptr, ptr %6, align 8
  %12 = load i32, ptr %7, align 4
  %13 = load ptr, ptr %8, align 8
  %14 = load i32, ptr %10, align 4
  %15 = call ptr @proto_tree_add_item(ptr noundef %11, i32 noundef %12, ptr noundef %13, i32 noundef %14, i32 noundef 16, i32 noundef 0)
  %16 = load i32, ptr %10, align 4
  %17 = add i32 %16, 16
  ret i32 %17
}

; Function Attrs: null_pointer_is_valid sspstrong uwtable
define internal i32 @dissect_kafka_fetch_request_topic(ptr noundef %0, ptr noundef %1, ptr noundef %2, i32 noundef %3, i16 noundef signext %4) #0 {
  %6 = alloca ptr, align 8
  %7 = alloca ptr, align 8
  %8 = alloca ptr, align 8
  %9 = alloca i32, align 4
  %10 = alloca i16, align 2
  %11 = alloca ptr, align 8
  %12 = alloca ptr, align 8
  %13 = alloca ptr, align 8
  %14 = alloca ptr, align 8
  %15 = alloca i32, align 4
  %16 = alloca i32, align 4
  %17 = alloca i32, align 4
  store ptr %0, ptr %6, align 8
  store ptr %1, ptr %7, align 8
  store ptr %2, ptr %8, align 8
  store i32 %3, ptr %9, align 4
  store i16 %4, ptr %10, align 2
  call void @llvm.lifetime.start.p0(i64 8, ptr %11) #12
  call void @llvm.lifetime.start.p0(i64 8, ptr %12) #12
  call void @llvm.lifetime.start.p0(i64 8, ptr %13) #12
  call void @llvm.lifetime.start.p0(i64 8, ptr %14) #12
  call void @llvm.lifetime.start.p0(i64 4, ptr %15) #12
  store i32 0, ptr %15, align 4
  call void @llvm.lifetime.start.p0(i64 4, ptr %16) #12
  call void @llvm.lifetime.start.p0(i64 4, ptr %17) #12
  %18 = load ptr, ptr %8, align 8
  %19 = load ptr, ptr %6, align 8
  %20 = load i32, ptr %9, align 4
  %21 = load i32, ptr @ett_kafka_topic, align 4
  %22 = call ptr @proto_tree_add_subtree(ptr noundef %18, ptr noundef %19, i32 noundef %20, i32 noundef -1, i32 noundef %21, ptr noundef %11, ptr noundef @.str.558)
  store ptr %22, ptr %13, align 8
  %23 = load i16, ptr %10, align 2
  %24 = sext i16 %23 to i32
  %25 = icmp sge i32 %24, 0
  br i1 %25, label %26, label %41

26:                                               ; preds = %5
  %27 = load i16, ptr %10, align 2
  %28 = sext i16 %27 to i32
  %29 = icmp sle i32 %28, 12
  br i1 %29, label %30, label %41

30:                                               ; preds = %26
  %31 = load ptr, ptr %13, align 8
  %32 = load i32, ptr @hf_kafka_topic_name, align 4
  %33 = load ptr, ptr %6, align 8
  %34 = load ptr, ptr %7, align 8
  %35 = load i32, ptr %9, align 4
  %36 = load i16, ptr %10, align 2
  %37 = sext i16 %36 to i32
  %38 = icmp sge i32 %37, 12
  %39 = zext i1 %38 to i32
  %40 = call i32 @dissect_kafka_string(ptr noundef %31, i32 noundef %32, ptr noundef %33, ptr noundef %34, i32 noundef %35, i32 noundef %39, ptr noundef %16, ptr noundef %17)
  store i32 %40, ptr %9, align 4
  br label %41

41:                                               ; preds = %30, %26, %5
  %42 = load i16, ptr %10, align 2
  %43 = sext i16 %42 to i32
  %44 = icmp sge i32 %43, 13
  br i1 %44, label %45, label %52

45:                                               ; preds = %41
  %46 = load ptr, ptr %13, align 8
  %47 = load i32, ptr @hf_kafka_topic_id, align 4
  %48 = load ptr, ptr %6, align 8
  %49 = load ptr, ptr %7, align 8
  %50 = load i32, ptr %9, align 4
  %51 = call i32 @dissect_kafka_uuid(ptr noundef %46, i32 noundef %47, ptr noundef %48, ptr noundef %49, i32 noundef %50)
  store i32 %51, ptr %9, align 4
  br label %52

52:                                               ; preds = %45, %41
  %53 = load ptr, ptr %13, align 8
  %54 = load ptr, ptr %6, align 8
  %55 = load i32, ptr %9, align 4
  %56 = load i32, ptr @ett_kafka_topic, align 4
  %57 = call ptr @proto_tree_add_subtree(ptr noundef %53, ptr noundef %54, i32 noundef %55, i32 noundef -1, i32 noundef %56, ptr noundef %12, ptr noundef @.str.671)
  store ptr %57, ptr %14, align 8
  %58 = load ptr, ptr %14, align 8
  %59 = load ptr, ptr %6, align 8
  %60 = load ptr, ptr %7, align 8
  %61 = load i32, ptr %9, align 4
  %62 = load i16, ptr %10, align 2
  %63 = sext i16 %62 to i32
  %64 = icmp sge i32 %63, 12
  %65 = zext i1 %64 to i32
  %66 = load i16, ptr %10, align 2
  %67 = call i32 @dissect_kafka_array(ptr noundef %58, ptr noundef %59, ptr noundef %60, i32 noundef %61, i32 noundef %65, i16 noundef signext %66, ptr noundef @dissect_kafka_fetch_request_partition, ptr noundef %15)
  store i32 %67, ptr %9, align 4
  %68 = load ptr, ptr %12, align 8
  %69 = load ptr, ptr %6, align 8
  %70 = load i32, ptr %9, align 4
  call void @proto_item_set_end(ptr noundef %68, ptr noundef %69, i32 noundef %70)
  %71 = load i16, ptr %10, align 2
  %72 = sext i16 %71 to i32
  %73 = icmp sge i32 %72, 12
  br i1 %73, label %74, label %80

74:                                               ; preds = %52
  %75 = load ptr, ptr %6, align 8
  %76 = load ptr, ptr %7, align 8
  %77 = load ptr, ptr %13, align 8
  %78 = load i32, ptr %9, align 4
  %79 = call i32 @dissect_kafka_tagged_fields(ptr noundef %75, ptr noundef %76, ptr noundef %77, i32 noundef %78, i16 noundef signext 0)
  store i32 %79, ptr %9, align 4
  br label %80

80:                                               ; preds = %74, %52
  %81 = load ptr, ptr %11, align 8
  %82 = load ptr, ptr %6, align 8
  %83 = load i32, ptr %9, align 4
  call void @proto_item_set_end(ptr noundef %81, ptr noundef %82, i32 noundef %83)
  %84 = load ptr, ptr %11, align 8
  %85 = load i32, ptr %15, align 4
  call void (ptr, ptr, ...) @proto_item_append_text(ptr noundef %84, ptr noundef @.str.672, i32 noundef %85)
  %86 = load i32, ptr %9, align 4
  call void @llvm.lifetime.end.p0(i64 4, ptr %17) #12
  call void @llvm.lifetime.end.p0(i64 4, ptr %16) #12
  call void @llvm.lifetime.end.p0(i64 4, ptr %15) #12
  call void @llvm.lifetime.end.p0(i64 8, ptr %14) #12
  call void @llvm.lifetime.end.p0(i64 8, ptr %13) #12
  call void @llvm.lifetime.end.p0(i64 8, ptr %12) #12
  call void @llvm.lifetime.end.p0(i64 8, ptr %11) #12
  ret i32 %86
}