; Function Attrs: null_pointer_is_valid sspstrong uwtable
define internal noundef i32 @dissect_kafka_fetch_request_topic(ptr noundef %0, ptr noundef %1, ptr noundef %2, i32 noundef %3, i16 noundef signext %4) #0 {
  %6 = alloca ptr, align 8
  %7 = alloca ptr, align 8
  %8 = alloca i32, align 4
  %9 = alloca i32, align 4
  %10 = alloca i32, align 4
  call void @llvm.lifetime.start.p0(i64 8, ptr nonnull %6) #9
  call void @llvm.lifetime.start.p0(i64 8, ptr nonnull %7) #9
  call void @llvm.lifetime.start.p0(i64 4, ptr nonnull %8) #9
  store i32 0, ptr %8, align 4
  call void @llvm.lifetime.start.p0(i64 4, ptr nonnull %9) #9
  call void @llvm.lifetime.start.p0(i64 4, ptr nonnull %10) #9
  %11 = load i32, ptr @ett_kafka_topic, align 4
  %12 = call ptr @proto_tree_add_subtree(ptr noundef %2, ptr noundef %0, i32 noundef %3, i32 noundef -1, i32 noundef %11, ptr noundef nonnull %6, ptr noundef nonnull @.str.558)
  %or.cond = icmp ult i16 %4, 13
  br i1 %or.cond, label %.thread, label %17

.thread:                                          ; preds = %5
  %13 = load i32, ptr @hf_kafka_topic_name, align 4
  %14 = icmp eq i16 %4, 12
  %15 = zext i1 %14 to i32
  %16 = call fastcc i32 @dissect_kafka_string(ptr noundef %12, i32 noundef %13, ptr noundef %0, ptr noundef %1, i32 noundef %3, i32 noundef %15, ptr noundef nonnull %9, ptr noundef nonnull %10)
  br label %23

17:                                               ; preds = %5
  %18 = icmp sgt i16 %4, 12
  br i1 %18, label %19, label %23

19:                                               ; preds = %17
  %20 = load i32, ptr @hf_kafka_topic_id, align 4
  %21 = call ptr @proto_tree_add_item(ptr noundef %12, i32 noundef %20, ptr noundef %0, i32 noundef %3, i32 noundef 16, i32 noundef 0)
  %22 = add i32 %3, 16
  br label %23

23:                                               ; preds = %.thread, %19, %17
  %.1 = phi i32 [ %22, %19 ], [ %3, %17 ], [ %16, %.thread ]
  %24 = load i32, ptr @ett_kafka_topic, align 4
  %25 = call ptr @proto_tree_add_subtree(ptr noundef %12, ptr noundef %0, i32 noundef %.1, i32 noundef -1, i32 noundef %24, ptr noundef nonnull %7, ptr noundef nonnull @.str.671)
  %26 = icmp sgt i16 %4, 11
  %27 = zext i1 %26 to i32
  %28 = call fastcc i32 @dissect_kafka_array(ptr noundef %25, ptr noundef %0, ptr noundef %1, i32 noundef %.1, i32 noundef %27, i16 noundef signext %4, ptr noundef nonnull @dissect_kafka_fetch_request_partition, ptr noundef nonnull %8)
  %29 = load ptr, ptr %7, align 8
  call void @proto_item_set_end(ptr noundef %29, ptr noundef %0, i32 noundef %28)
  br i1 %26, label %30, label %32

30:                                               ; preds = %23
  %31 = call fastcc i32 @dissect_kafka_tagged_fields(ptr noundef %0, ptr noundef %1, ptr noundef %12, i32 noundef %28)
  br label %32

32:                                               ; preds = %30, %23
  %.2 = phi i32 [ %31, %30 ], [ %28, %23 ]
  %33 = load ptr, ptr %6, align 8
  call void @proto_item_set_end(ptr noundef %33, ptr noundef %0, i32 noundef %.2)
  %34 = load ptr, ptr %6, align 8
  %35 = load i32, ptr %8, align 4
  call void (ptr, ptr, ...) @proto_item_append_text(ptr noundef %34, ptr noundef nonnull @.str.672, i32 noundef %35)
  call void @llvm.lifetime.end.p0(i64 4, ptr nonnull %10) #9
  call void @llvm.lifetime.end.p0(i64 4, ptr nonnull %9) #9
  call void @llvm.lifetime.end.p0(i64 4, ptr nonnull %8) #9
  call void @llvm.lifetime.end.p0(i64 8, ptr nonnull %7) #9
  call void @llvm.lifetime.end.p0(i64 8, ptr nonnull %6) #9
  ret i32 %.2
}